target datalayout = "e-m:e-p270:32:32-p271:32:32-p272:64:64-i64:64-i128:128-f80:128-n8:16:32:64-S128"
target triple = "x86_64-pc-linux-gnu"

; Function Attrs: inlinehint nounwind uwtable
define internal i32 @Kit_WordCountOnes(i32 noundef %0) #2 {
  %2 = alloca i32, align 4
  store i32 %0, ptr %2, align 4, !tbaa !8
  %3 = load i32, ptr %2, align 4, !tbaa !8
  %4 = and i32 %3, 1431655765
  %5 = load i32, ptr %2, align 4, !tbaa !8
  %6 = lshr i32 %5, 1
  %7 = and i32 %6, 1431655765
  %8 = add i32 %4, %7
  store i32 %8, ptr %2, align 4, !tbaa !8
  %9 = load i32, ptr %2, align 4, !tbaa !8
  %10 = and i32 %9, 858993459
  %11 = load i32, ptr %2, align 4, !tbaa !8
  %12 = lshr i32 %11, 2
  %13 = and i32 %12, 858993459
  %14 = add i32 %10, %13
  store i32 %14, ptr %2, align 4, !tbaa !8
  %15 = load i32, ptr %2, align 4, !tbaa !8
  %16 = and i32 %15, 252645135
  %17 = load i32, ptr %2, align 4, !tbaa !8
  %18 = lshr i32 %17, 4
  %19 = and i32 %18, 252645135
  %20 = add i32 %16, %19
  store i32 %20, ptr %2, align 4, !tbaa !8
  %21 = load i32, ptr %2, align 4, !tbaa !8
  %22 = and i32 %21, 16711935
  %23 = load i32, ptr %2, align 4, !tbaa !8
  %24 = lshr i32 %23, 8
  %25 = and i32 %24, 16711935
  %26 = add i32 %22, %25
  store i32 %26, ptr %2, align 4, !tbaa !8
  %27 = load i32, ptr %2, align 4, !tbaa !8
  %28 = and i32 %27, 65535
  %29 = load i32, ptr %2, align 4, !tbaa !8
  %30 = lshr i32 %29, 16
  %31 = add i32 %28, %30
  ret i32 %31
}

; Function Attrs: inlinehint nounwind uwtable
define internal i32 @Kit_TruthWordNum(i32 noundef %0) #2 {
  %2 = alloca i32, align 4
  store i32 %0, ptr %2, align 4, !tbaa !8
  %3 = load i32, ptr %2, align 4, !tbaa !8
  %4 = icmp sle i32 %3, 5
  br i1 %4, label %5, label %6

5:                                                ; preds = %1
  br label %10

6:                                                ; preds = %1
  %7 = load i32, ptr %2, align 4, !tbaa !8
  %8 = sub nsw i32 %7, 5
  %9 = shl i32 1, %8
  br label %10

10:                                               ; preds = %6, %5
  %11 = phi i32 [ 1, %5 ], [ %9, %6 ]
  ret i32 %11
}

; Function Attrs: nounwind uwtable
define void @Kit_TruthCountOnesInCofs0(ptr noundef %0, i32 noundef %1, ptr noundef %2) #0 {
  %4 = alloca ptr, align 8
  %5 = alloca i32, align 4
  %6 = alloca ptr, align 8
  %7 = alloca i32, align 4
  %8 = alloca i32, align 4
  %9 = alloca i32, align 4
  %10 = alloca i32, align 4
  %11 = alloca i32, align 4
  store ptr %0, ptr %4, align 8, !tbaa !3
  store i32 %1, ptr %5, align 4, !tbaa !8
  store ptr %2, ptr %6, align 8, !tbaa !3
  call void @llvm.lifetime.start.p0(i64 4, ptr %7) #8
  %12 = load i32, ptr %5, align 4, !tbaa !8
  %13 = call i32 @Kit_TruthWordNum(i32 noundef %12)
  store i32 %13, ptr %7, align 4, !tbaa !8
  call void @llvm.lifetime.start.p0(i64 4, ptr %8) #8
  call void @llvm.lifetime.start.p0(i64 4, ptr %9) #8
  call void @llvm.lifetime.start.p0(i64 4, ptr %10) #8
  %14 = load ptr, ptr %6, align 8, !tbaa !3
  %15 = load i32, ptr %5, align 4, !tbaa !8
  %16 = sext i32 %15 to i64
  %17 = mul i64 4, %16
  call void @llvm.memset.p0.i64(ptr align 4 %14, i8 0, i64 %17, i1 false)
  %18 = load i32, ptr %5, align 4, !tbaa !8
  %19 = icmp sle i32 %18, 5
  br i1 %19, label %20, label %76

20:                                               ; preds = %3
  %21 = load i32, ptr %5, align 4, !tbaa !8
  %22 = icmp sgt i32 %21, 0
  br i1 %22, label %23, label %31

23:                                               ; preds = %20
  %24 = load ptr, ptr %4, align 8, !tbaa !3
  %25 = getelementptr inbounds i32, ptr %24, i64 0
  %26 = load i32, ptr %25, align 4, !tbaa !8
  %27 = and i32 %26, 1431655765
  %28 = call i32 @Kit_WordCountOnes(i32 noundef %27)
  %29 = load ptr, ptr %6, align 8, !tbaa !3
  %30 = getelementptr inbounds i32, ptr %29, i64 0
  store i32 %28, ptr %30, align 4, !tbaa !8
  br label %31

31:                                               ; preds = %23, %20
  %32 = load i32, ptr %5, align 4, !tbaa !8
  %33 = icmp sgt i32 %32, 1
  br i1 %33, label %34, label %42

34:                                               ; preds = %31
  %35 = load ptr, ptr %4, align 8, !tbaa !3
  %36 = getelementptr inbounds i32, ptr %35, i64 0
  %37 = load i32, ptr %36, align 4, !tbaa !8
  %38 = and i32 %37, 858993459
  %39 = call i32 @Kit_WordCountOnes(i32 noundef %38)
  %40 = load ptr, ptr %6, align 8, !tbaa !3
  %41 = getelementptr inbounds i32, ptr %40, i64 1
  store i32 %39, ptr %41, align 4, !tbaa !8
  br label %42

42:                                               ; preds = %34, %31
  %43 = load i32, ptr %5, align 4, !tbaa !8
  %44 = icmp sgt i32 %43, 2
  br i1 %44, label %45, label %53

45:                                               ; preds = %42
  %46 = load ptr, ptr %4, align 8, !tbaa !3
  %47 = getelementptr inbounds i32, ptr %46, i64 0
  %48 = load i32, ptr %47, align 4, !tbaa !8
  %49 = and i32 %48, 252645135
  %50 = call i32 @Kit_WordCountOnes(i32 noundef %49)
  %51 = load ptr, ptr %6, align 8, !tbaa !3
  %52 = getelementptr inbounds i32, ptr %51, i64 2
  store i32 %50, ptr %52, align 4, !tbaa !8
  br label %53

53:                                               ; preds = %45, %42
  %54 = load i32, ptr %5, align 4, !tbaa !8
  %55 = icmp sgt i32 %54, 3
  br i1 %55, label %56, label %64

56:                                               ; preds = %53
  %57 = load ptr, ptr %4, align 8, !tbaa !3
  %58 = getelementptr inbounds i32, ptr %57, i64 0
  %59 = load i32, ptr %58, align 4, !tbaa !8
  %60 = and i32 %59, 16711935
  %61 = call i32 @Kit_WordCountOnes(i32 noundef %60)
  %62 = load ptr, ptr %6, align 8, !tbaa !3
  %63 = getelementptr inbounds i32, ptr %62, i64 3
  store i32 %61, ptr %63, align 4, !tbaa !8
  br label %64

64:                                               ; preds = %56, %53
  %65 = load i32, ptr %5, align 4, !tbaa !8
  %66 = icmp sgt i32 %65, 4
  br i1 %66, label %67, label %75

67:                                               ; preds = %64
  %68 = load ptr, ptr %4, align 8, !tbaa !3
  %69 = getelementptr inbounds i32, ptr %68, i64 0
  %70 = load i32, ptr %69, align 4, !tbaa !8
  %71 = and i32 %70, 65535
  %72 = call i32 @Kit_WordCountOnes(i32 noundef %71)
  %73 = load ptr, ptr %6, align 8, !tbaa !3
  %74 = getelementptr inbounds i32, ptr %73, i64 4
  store i32 %72, ptr %74, align 4, !tbaa !8
  br label %75

75:                                               ; preds = %67, %64
  store i32 1, ptr %11, align 4
  br label %203

76:                                               ; preds = %3
  store i32 0, ptr %9, align 4, !tbaa !8
  br label %77

77:                                               ; preds = %112, %76
  %78 = load i32, ptr %9, align 4, !tbaa !8
  %79 = load i32, ptr %7, align 4, !tbaa !8
  %80 = icmp slt i32 %78, %79
  br i1 %80, label %81, label %115

81:                                               ; preds = %77
  %82 = load ptr, ptr %4, align 8, !tbaa !3
  %83 = load i32, ptr %9, align 4, !tbaa !8
  %84 = sext i32 %83 to i64
  %85 = getelementptr inbounds i32, ptr %82, i64 %84
  %86 = load i32, ptr %85, align 4, !tbaa !8
  %87 = call i32 @Kit_WordCountOnes(i32 noundef %86)
  store i32 %87, ptr %10, align 4, !tbaa !8
  store i32 5, ptr %8, align 4, !tbaa !8
  br label %88

88:                                               ; preds = %108, %81
  %89 = load i32, ptr %8, align 4, !tbaa !8
  %90 = load i32, ptr %5, align 4, !tbaa !8
  %91 = icmp slt i32 %89, %90
  br i1 %91, label %92, label %111

92:                                               ; preds = %88
  %93 = load i32, ptr %9, align 4, !tbaa !8
  %94 = load i32, ptr %8, align 4, !tbaa !8
  %95 = sub nsw i32 %94, 5
  %96 = shl i32 1, %95
  %97 = and i32 %93, %96
  %98 = icmp eq i32 %97, 0
  br i1 %98, label %99, label %107

99:                                               ; preds = %92
  %100 = load i32, ptr %10, align 4, !tbaa !8
  %101 = load ptr, ptr %6, align 8, !tbaa !3
  %102 = load i32, ptr %8, align 4, !tbaa !8
  %103 = sext i32 %102 to i64
  %104 = getelementptr inbounds i32, ptr %101, i64 %103
  %105 = load i32, ptr %104, align 4, !tbaa !8
  %106 = add nsw i32 %105, %100
  store i32 %106, ptr %104, align 4, !tbaa !8
  br label %107

107:                                              ; preds = %99, %92
  br label %108

108:                                              ; preds = %107
  %109 = load i32, ptr %8, align 4, !tbaa !8
  %110 = add nsw i32 %109, 1
  store i32 %110, ptr %8, align 4, !tbaa !8
  br label %88, !llvm.loop !163

111:                                              ; preds = %88
  br label %112

112:                                              ; preds = %111
  %113 = load i32, ptr %9, align 4, !tbaa !8
  %114 = add nsw i32 %113, 1
  store i32 %114, ptr %9, align 4, !tbaa !8
  br label %77, !llvm.loop !164

115:                                              ; preds = %77
  store i32 0, ptr %9, align 4, !tbaa !8
  br label %116

116:                                              ; preds = %199, %115
  %117 = load i32, ptr %9, align 4, !tbaa !8
  %118 = load i32, ptr %7, align 4, !tbaa !8
  %119 = sdiv i32 %118, 2
  %120 = icmp slt i32 %117, %119
  br i1 %120, label %121, label %202

121:                                              ; preds = %116
  %122 = load ptr, ptr %4, align 8, !tbaa !3
  %123 = getelementptr inbounds i32, ptr %122, i64 0
  %124 = load i32, ptr %123, align 4, !tbaa !8
  %125 = and i32 %124, 1431655765
  %126 = load ptr, ptr %4, align 8, !tbaa !3
  %127 = getelementptr inbounds i32, ptr %126, i64 1
  %128 = load i32, ptr %127, align 4, !tbaa !8
  %129 = and i32 %128, 1431655765
  %130 = shl i32 %129, 1
  %131 = or i32 %125, %130
  %132 = call i32 @Kit_WordCountOnes(i32 noundef %131)
  %133 = load ptr, ptr %6, align 8, !tbaa !3
  %134 = getelementptr inbounds i32, ptr %133, i64 0
  %135 = load i32, ptr %134, align 4, !tbaa !8
  %136 = add nsw i32 %135, %132
  store i32 %136, ptr %134, align 4, !tbaa !8
  %137 = load ptr, ptr %4, align 8, !tbaa !3
  %138 = getelementptr inbounds i32, ptr %137, i64 0
  %139 = load i32, ptr %138, align 4, !tbaa !8
  %140 = and i32 %139, 858993459
  %141 = load ptr, ptr %4, align 8, !tbaa !3
  %142 = getelementptr inbounds i32, ptr %141, i64 1
  %143 = load i32, ptr %142, align 4, !tbaa !8
  %144 = and i32 %143, 858993459
  %145 = shl i32 %144, 2
  %146 = or i32 %140, %145
  %147 = call i32 @Kit_WordCountOnes(i32 noundef %146)
  %148 = load ptr, ptr %6, align 8, !tbaa !3
  %149 = getelementptr inbounds i32, ptr %148, i64 1
  %150 = load i32, ptr %149, align 4, !tbaa !8
  %151 = add nsw i32 %150, %147
  store i32 %151, ptr %149, align 4, !tbaa !8
  %152 = load ptr, ptr %4, align 8, !tbaa !3
  %153 = getelementptr inbounds i32, ptr %152, i64 0
  %154 = load i32, ptr %153, align 4, !tbaa !8
  %155 = and i32 %154, 252645135
  %156 = load ptr, ptr %4, align 8, !tbaa !3
  %157 = getelementptr inbounds i32, ptr %156, i64 1
  %158 = load i32, ptr %157, align 4, !tbaa !8
  %159 = and i32 %158, 252645135
  %160 = shl i32 %159, 4
  %161 = or i32 %155, %160
  %162 = call i32 @Kit_WordCountOnes(i32 noundef %161)
  %163 = load ptr, ptr %6, align 8, !tbaa !3
  %164 = getelementptr inbounds i32, ptr %163, i64 2
  %165 = load i32, ptr %164, align 4, !tbaa !8
  %166 = add nsw i32 %165, %162
  store i32 %166, ptr %164, align 4, !tbaa !8
  %167 = load ptr, ptr %4, align 8, !tbaa !3
  %168 = getelementptr inbounds i32, ptr %167, i64 0
  %169 = load i32, ptr %168, align 4, !tbaa !8
  %170 = and i32 %169, 16711935
  %171 = load ptr, ptr %4, align 8, !tbaa !3
  %172 = getelementptr inbounds i32, ptr %171, i64 1
  %173 = load i32, ptr %172, align 4, !tbaa !8
  %174 = and i32 %173, 16711935
  %175 = shl i32 %174, 8
  %176 = or i32 %170, %175
  %177 = call i32 @Kit_WordCountOnes(i32 noundef %176)
  %178 = load ptr, ptr %6, align 8, !tbaa !3
  %179 = getelementptr inbounds i32, ptr %178, i64 3
  %180 = load i32, ptr %179, align 4, !tbaa !8
  %181 = add nsw i32 %180, %177
  store i32 %181, ptr %179, align 4, !tbaa !8
  %182 = load ptr, ptr %4, align 8, !tbaa !3
  %183 = getelementptr inbounds i32, ptr %182, i64 0
  %184 = load i32, ptr %183, align 4, !tbaa !8
  %185 = and i32 %184, 65535
  %186 = load ptr, ptr %4, align 8, !tbaa !3
  %187 = getelementptr inbounds i32, ptr %186, i64 1
  %188 = load i32, ptr %187, align 4, !tbaa !8
  %189 = and i32 %188, 65535
  %190 = shl i32 %189, 16
  %191 = or i32 %185, %190
  %192 = call i32 @Kit_WordCountOnes(i32 noundef %191)
  %193 = load ptr, ptr %6, align 8, !tbaa !3
  %194 = getelementptr inbounds i32, ptr %193, i64 4
  %195 = load i32, ptr %194, align 4, !tbaa !8
  %196 = add nsw i32 %195, %192
  store i32 %196, ptr %194, align 4, !tbaa !8
  %197 = load ptr, ptr %4, align 8, !tbaa !3
  %198 = getelementptr inbounds i32, ptr %197, i64 2
  store ptr %198, ptr %4, align 8, !tbaa !3
  br label %199

199:                                              ; preds = %121
  %200 = load i32, ptr %9, align 4, !tbaa !8
  %201 = add nsw i32 %200, 1
  store i32 %201, ptr %9, align 4, !tbaa !8
  br label %116, !llvm.loop !165

202:                                              ; preds = %116
  store i32 0, ptr %11, align 4
  br label %203

203:                                              ; preds = %202, %75
  call void @llvm.lifetime.end.p0(i64 4, ptr %10) #8
  call void @llvm.lifetime.end.p0(i64 4, ptr %9) #8
  call void @llvm.lifetime.end.p0(i64 4, ptr %8) #8
  call void @llvm.lifetime.end.p0(i64 4, ptr %7) #8
  %204 = load i32, ptr %11, align 4
  switch i32 %204, label %206 [
    i32 0, label %205
    i32 1, label %205
  ]

205:                                              ; preds = %203, %203
  ret void

206:                                              ; preds = %203
  unreachable
}