; Function Attrs: nofree norecurse nosync nounwind memory(argmem: readwrite) uwtable
define void @Kit_TruthCountOnesInCofs0(ptr noundef readonly captures(none) %0, i32 noundef %1, ptr noundef captures(none) %2) local_unnamed_addr #0 {
  %4 = icmp slt i32 %1, 6
  %5 = add nsw i32 %1, -5
  %6 = shl nuw i32 1, %5
  %7 = select i1 %4, i32 1, i32 %6
  %8 = sext i32 %1 to i64
  %9 = shl nsw i64 %8, 2
  tail call void @llvm.memset.p0.i64(ptr align 4 %2, i8 0, i64 %9, i1 false)
  br i1 %4, label %43, label %.preheader61

.preheader61:                                     ; preds = %3
  %.not79 = icmp eq i32 %5, 31
  br i1 %.not79, label %.thread59, label %.lr.ph.us.preheader

.lr.ph.us.preheader:                              ; preds = %.preheader61
  %wide.trip.count76 = zext nneg i32 %6 to i64
  %wide.trip.count = zext nneg i32 %1 to i64
  br label %.lr.ph.us

.lr.ph.us:                                        ; preds = %.lr.ph.us.preheader, %._crit_edge.us
  %indvars.iv73 = phi i64 [ 0, %.lr.ph.us.preheader ], [ %indvars.iv.next74, %._crit_edge.us ]
  %10 = getelementptr inbounds nuw i32, ptr %0, i64 %indvars.iv73
  %11 = load i32, ptr %10, align 4, !tbaa !3
  %12 = and i32 %11, 1431655765
  %13 = lshr i32 %11, 1
  %14 = and i32 %13, 1431655765
  %15 = add nuw i32 %14, %12
  %16 = and i32 %15, 858993459
  %17 = lshr i32 %15, 2
  %18 = and i32 %17, 858993459
  %19 = add nuw nsw i32 %18, %16
  %20 = and i32 %19, 117901063
  %21 = lshr i32 %19, 4
  %22 = and i32 %21, 117901063
  %23 = add nuw nsw i32 %22, %20
  %24 = and i32 %23, 983055
  %25 = lshr i32 %23, 8
  %26 = and i32 %25, 983055
  %27 = add nuw nsw i32 %26, %24
  %28 = and i32 %27, 31
  %29 = lshr i32 %27, 16
  %30 = add nuw nsw i32 %28, %29
  %31 = trunc nuw nsw i64 %indvars.iv73 to i32
  br label %32

32:                                               ; preds = %.lr.ph.us, %42
  %indvars.iv = phi i64 [ 5, %.lr.ph.us ], [ %indvars.iv.next, %42 ]
  %33 = trunc i64 %indvars.iv to i32
  %34 = add i32 %33, -5
  %35 = shl nuw i32 1, %34
  %36 = and i32 %35, %31
  %37 = icmp eq i32 %36, 0
  br i1 %37, label %38, label %42

38:                                               ; preds = %32
  %39 = getelementptr inbounds nuw i32, ptr %2, i64 %indvars.iv
  %40 = load i32, ptr %39, align 4, !tbaa !3
  %41 = add nsw i32 %30, %40
  store i32 %41, ptr %39, align 4, !tbaa !3
  br label %42

42:                                               ; preds = %38, %32
  %indvars.iv.next = add nuw nsw i64 %indvars.iv, 1
  %exitcond.not = icmp eq i64 %indvars.iv.next, %wide.trip.count
  br i1 %exitcond.not, label %._crit_edge.us, label %32, !llvm.loop !157

._crit_edge.us:                                   ; preds = %42
  %indvars.iv.next74 = add nuw nsw i64 %indvars.iv73, 1
  %exitcond77.not = icmp eq i64 %indvars.iv.next74, %wide.trip.count76
  br i1 %exitcond77.not, label %.preheader, label %.lr.ph.us, !llvm.loop !158

43:                                               ; preds = %3
  %44 = icmp sgt i32 %1, 0
  br i1 %44, label %45, label %.thread59

45:                                               ; preds = %43
  %46 = load i32, ptr %0, align 4, !tbaa !3
  %47 = and i32 %46, 286331153
  %48 = lshr i32 %46, 2
  %49 = and i32 %48, 286331153
  %50 = add nuw nsw i32 %49, %47
  %51 = and i32 %50, 50529027
  %52 = lshr i32 %50, 4
  %53 = and i32 %52, 50529027
  %54 = add nuw nsw i32 %53, %51
  %55 = and i32 %54, 458759
  %56 = lshr i32 %54, 8
  %57 = and i32 %56, 458759
  %58 = add nuw nsw i32 %57, %55
  %59 = and i32 %58, 15
  %60 = lshr i32 %58, 16
  %61 = add nuw nsw i32 %59, %60
  store i32 %61, ptr %2, align 4, !tbaa !3
  %.not = icmp eq i32 %1, 1
  br i1 %.not, label %.thread59, label %62

62:                                               ; preds = %45
  %63 = load i32, ptr %0, align 4, !tbaa !3
  %64 = and i32 %63, 286331153
  %65 = lshr i32 %63, 1
  %66 = and i32 %65, 286331153
  %67 = add nuw nsw i32 %66, %64
  %68 = and i32 %67, 50529027
  %69 = lshr i32 %67, 4
  %70 = and i32 %69, 50529027
  %71 = add nuw nsw i32 %70, %68
  %72 = and i32 %71, 458759
  %73 = lshr i32 %71, 8
  %74 = and i32 %73, 458759
  %75 = add nuw nsw i32 %74, %72
  %76 = and i32 %75, 15
  %77 = lshr i32 %75, 16
  %78 = add nuw nsw i32 %76, %77
  %79 = getelementptr inbounds nuw i8, ptr %2, i64 4
  store i32 %78, ptr %79, align 4, !tbaa !3
  %80 = icmp samesign ugt i32 %1, 2
  br i1 %80, label %81, label %.thread59

81:                                               ; preds = %62
  %82 = load i32, ptr %0, align 4, !tbaa !3
  %83 = and i32 %82, 84215045
  %84 = lshr i32 %82, 1
  %85 = and i32 %84, 84215045
  %86 = add nuw nsw i32 %85, %83
  %87 = and i32 %86, 50529027
  %88 = lshr i32 %86, 2
  %89 = and i32 %88, 50529027
  %90 = add nuw nsw i32 %89, %87
  %91 = and i32 %90, 458759
  %92 = lshr i32 %90, 8
  %93 = and i32 %92, 458759
  %94 = add nuw nsw i32 %93, %91
  %95 = and i32 %94, 15
  %96 = lshr i32 %94, 16
  %97 = add nuw nsw i32 %95, %96
  %98 = getelementptr inbounds nuw i8, ptr %2, i64 8
  store i32 %97, ptr %98, align 4, !tbaa !3
  %.not60 = icmp eq i32 %1, 3
  br i1 %.not60, label %.thread59, label %99

99:                                               ; preds = %81
  %100 = load i32, ptr %0, align 4, !tbaa !3
  %101 = and i32 %100, 5570645
  %102 = lshr i32 %100, 1
  %103 = and i32 %102, 5570645
  %104 = add nuw nsw i32 %103, %101
  %105 = and i32 %104, 3342387
  %106 = lshr i32 %104, 2
  %107 = and i32 %106, 3342387
  %108 = add nuw nsw i32 %107, %105
  %109 = and i32 %108, 458759
  %110 = lshr i32 %108, 4
  %111 = and i32 %110, 458759
  %112 = add nuw nsw i32 %111, %109
  %113 = and i32 %112, 15
  %114 = lshr i32 %112, 16
  %115 = add nuw nsw i32 %113, %114
  %116 = getelementptr inbounds nuw i8, ptr %2, i64 12
  store i32 %115, ptr %116, align 4, !tbaa !3
  %117 = icmp eq i32 %1, 5
  br i1 %117, label %118, label %.thread59

118:                                              ; preds = %99
  %119 = load i32, ptr %0, align 4, !tbaa !3
  %120 = and i32 %119, 21845
  %121 = lshr i32 %119, 1
  %122 = and i32 %121, 21845
  %123 = add nuw nsw i32 %122, %120
  %124 = and i32 %123, 13107
  %125 = lshr i32 %123, 2
  %126 = and i32 %125, 13107
  %127 = add nuw nsw i32 %126, %124
  %128 = and i32 %127, 1799
  %129 = lshr i32 %127, 4
  %130 = and i32 %129, 1799
  %131 = add nuw nsw i32 %130, %128
  %132 = and i32 %131, 15
  %133 = lshr i32 %131, 8
  %134 = add nuw nsw i32 %133, %132
  %135 = getelementptr inbounds nuw i8, ptr %2, i64 16
  store i32 %134, ptr %135, align 4, !tbaa !3
  br label %.thread59

.preheader:                                       ; preds = %._crit_edge.us
  %136 = sdiv i32 %7, 2
  %137 = icmp sgt i32 %7, 1
  br i1 %137, label %.lr.ph, label %.thread59

.lr.ph:                                           ; preds = %.preheader
  %138 = getelementptr inbounds nuw i8, ptr %2, i64 4
  %139 = getelementptr inbounds nuw i8, ptr %2, i64 8
  %140 = getelementptr inbounds nuw i8, ptr %2, i64 12
  %141 = getelementptr inbounds nuw i8, ptr %2, i64 16
  %.promoted = load i32, ptr %2, align 4, !tbaa !3
  %.promoted67 = load i32, ptr %138, align 4, !tbaa !3
  %.promoted68 = load i32, ptr %139, align 4, !tbaa !3
  %.promoted69 = load i32, ptr %140, align 4, !tbaa !3
  %.promoted70 = load i32, ptr %141, align 4, !tbaa !3
  br label %142

142:                                              ; preds = %.lr.ph, %142
  %143 = phi i32 [ %.promoted70, %.lr.ph ], [ %272, %142 ]
  %144 = phi i32 [ %.promoted69, %.lr.ph ], [ %247, %142 ]
  %145 = phi i32 [ %.promoted68, %.lr.ph ], [ %221, %142 ]
  %146 = phi i32 [ %.promoted67, %.lr.ph ], [ %195, %142 ]
  %147 = phi i32 [ %.promoted, %.lr.ph ], [ %169, %142 ]
  %.066 = phi ptr [ %0, %.lr.ph ], [ %273, %142 ]
  %.165 = phi i32 [ 0, %.lr.ph ], [ %274, %142 ]
  %148 = load i32, ptr %.066, align 4, !tbaa !3
  %149 = and i32 %148, 1431655765
  %150 = getelementptr inbounds nuw i8, ptr %.066, i64 4
  %151 = load i32, ptr %150, align 4, !tbaa !3
  %152 = and i32 %151, 1431655765
  %153 = add nuw i32 %152, %149
  %154 = and i32 %153, 858993459
  %155 = lshr i32 %153, 2
  %156 = and i32 %155, 858993459
  %157 = add nuw nsw i32 %156, %154
  %158 = and i32 %157, 117901063
  %159 = lshr i32 %157, 4
  %160 = and i32 %159, 117901063
  %161 = add nuw nsw i32 %160, %158
  %162 = and i32 %161, 983055
  %163 = lshr i32 %161, 8
  %164 = and i32 %163, 983055
  %165 = add nuw nsw i32 %164, %162
  %166 = and i32 %165, 31
  %167 = lshr i32 %165, 16
  %168 = add i32 %167, %147
  %169 = add i32 %168, %166
  store i32 %169, ptr %2, align 4, !tbaa !3
  %170 = load i32, ptr %.066, align 4, !tbaa !3
  %171 = and i32 %170, 858993459
  %172 = load i32, ptr %150, align 4, !tbaa !3
  %173 = shl i32 %172, 2
  %174 = and i32 %173, -858993460
  %175 = or disjoint i32 %174, %171
  %176 = and i32 %175, 1431655765
  %177 = lshr i32 %175, 1
  %178 = and i32 %177, 1431655765
  %179 = add nuw i32 %178, %176
  %180 = and i32 %179, 858993459
  %181 = lshr i32 %179, 2
  %182 = and i32 %181, 858993459
  %183 = add nuw nsw i32 %182, %180
  %184 = and i32 %183, 117901063
  %185 = lshr i32 %183, 4
  %186 = and i32 %185, 117901063
  %187 = add nuw nsw i32 %186, %184
  %188 = and i32 %187, 983055
  %189 = lshr i32 %187, 8
  %190 = and i32 %189, 983055
  %191 = add nuw nsw i32 %190, %188
  %192 = and i32 %191, 31
  %193 = lshr i32 %191, 16
  %194 = add i32 %193, %146
  %195 = add i32 %194, %192
  store i32 %195, ptr %138, align 4, !tbaa !3
  %196 = load i32, ptr %.066, align 4, !tbaa !3
  %197 = and i32 %196, 252645135
  %198 = load i32, ptr %150, align 4, !tbaa !3
  %199 = shl i32 %198, 4
  %200 = and i32 %199, -252645136
  %201 = or disjoint i32 %200, %197
  %202 = and i32 %201, 1431655765
  %203 = lshr i32 %201, 1
  %204 = and i32 %203, 1431655765
  %205 = add nuw i32 %204, %202
  %206 = and i32 %205, 858993459
  %207 = lshr i32 %205, 2
  %208 = and i32 %207, 858993459
  %209 = add nuw nsw i32 %208, %206
  %210 = and i32 %209, 117901063
  %211 = lshr i32 %209, 4
  %212 = and i32 %211, 117901063
  %213 = add nuw nsw i32 %212, %210
  %214 = and i32 %213, 983055
  %215 = lshr i32 %213, 8
  %216 = and i32 %215, 983055
  %217 = add nuw nsw i32 %216, %214
  %218 = and i32 %217, 31
  %219 = lshr i32 %217, 16
  %220 = add i32 %219, %145
  %221 = add i32 %220, %218
  store i32 %221, ptr %139, align 4, !tbaa !3
  %222 = load i32, ptr %.066, align 4, !tbaa !3
  %223 = and i32 %222, 16711935
  %224 = load i32, ptr %150, align 4, !tbaa !3
  %225 = shl i32 %224, 8
  %226 = and i32 %225, -16711936
  %227 = or disjoint i32 %226, %223
  %228 = and i32 %227, 1431655765
  %229 = lshr i32 %227, 1
  %230 = and i32 %229, 1431655765
  %231 = add nuw i32 %230, %228
  %232 = and i32 %231, 858993459
  %233 = lshr i32 %231, 2
  %234 = and i32 %233, 858993459
  %235 = add nuw nsw i32 %234, %232
  %236 = and i32 %235, 117901063
  %237 = lshr i32 %235, 4
  %238 = and i32 %237, 117901063
  %239 = add nuw nsw i32 %238, %236
  %240 = and i32 %239, 983055
  %241 = lshr i32 %239, 8
  %242 = and i32 %241, 983055
  %243 = add nuw nsw i32 %242, %240
  %244 = and i32 %243, 31
  %245 = lshr i32 %243, 16
  %246 = add i32 %245, %144
  %247 = add i32 %246, %244
  store i32 %247, ptr %140, align 4, !tbaa !3
  %248 = load i32, ptr %.066, align 4, !tbaa !3
  %249 = and i32 %248, 65535
  %250 = load i32, ptr %150, align 4, !tbaa !3
  %251 = shl i32 %250, 16
  %252 = or disjoint i32 %251, %249
  %253 = and i32 %252, 1431655765
  %254 = lshr i32 %252, 1
  %255 = and i32 %254, 1431655765
  %256 = add nuw i32 %255, %253
  %257 = and i32 %256, 858993459
  %258 = lshr i32 %256, 2
  %259 = and i32 %258, 858993459
  %260 = add nuw nsw i32 %259, %257
  %261 = and i32 %260, 117901063
  %262 = lshr i32 %260, 4
  %263 = and i32 %262, 117901063
  %264 = add nuw nsw i32 %263, %261
  %265 = and i32 %264, 983055
  %266 = lshr i32 %264, 8
  %267 = and i32 %266, 983055
  %268 = add nuw nsw i32 %267, %265
  %269 = and i32 %268, 31
  %270 = lshr i32 %268, 16
  %271 = add i32 %270, %143
  %272 = add i32 %271, %269
  store i32 %272, ptr %141, align 4, !tbaa !3
  %273 = getelementptr inbounds nuw i8, ptr %.066, i64 8
  %274 = add nuw nsw i32 %.165, 1
  %exitcond78.not = icmp eq i32 %274, %136
  br i1 %exitcond78.not, label %.thread59, label %142, !llvm.loop !159

.thread59:                                        ; preds = %142, %.preheader61, %.preheader, %43, %45, %62, %81, %99, %118
  ret void
}